((dp1
Vwyrm.processing
p2
(dp3
S'funcs'
p4
(lp5
sS'classes'
p6
(dp7
ssVwyrm.plot
p8
(dp9
g4
(lp10
sg6
(dp11
ssVwyrm.types
p12
(dp13
g4
(lp14
sg6
(dp15
ssVwyrm.__init__
p16
(dp17
g4
(lp18
sg6
(dp19
ssVwyrm.tentensystem
p20
(dp21
g4
(lp22
sg6
(dp23
ssVwyrm.io
p24
(dp25
g4
(lp26
sg6
(dp27
ss(dp28
t.